(lp0
(lp1
F-10.615384615384613
aF-4.153846153846153
aF-11.79020979020979
aa(lp2
F-4.0588235294117645
aF-4.676470588235297
aF-2.75
aa(lp3
F-20.6013986013986
aF-7.0909090909090935
aF-12.965034965034967
aa(lp4
F-5.32867132867133
aF-13.323529411764707
aF-17.076923076923077
aa.