(lp0
(lp1
F-12.088235294117649
aF-6.5294117647058805
aF-8.382352941176471
aa(lp2
F-4.0588235294117645
aF-4.676470588235297
aF-2.75
aa(lp3
F-17.029411764705884
aF-8.382352941176471
aF-9.0
aa(lp4
F-3.5
aF-13.323529411764707
aF-11.47058823529412
aa.